; Function Attrs: mustprogress nofree norecurse nosync nounwind sspstrong willreturn memory(argmem: read) uwtable
define internal range(i64 1, 65) i64 @fun_si_iso2022jp_kddi_decoder(ptr noundef readonly captures(none) %0, ptr noundef readonly captures(none) %1, i64 %2) #3 {
  %4 = load i8, ptr %0, align 1, !tbaa !6
  %5 = icmp eq i8 %4, 0
  br i1 %5, label %9, label %6

6:                                                ; preds = %3
  %7 = load i8, ptr %1, align 1, !tbaa !6
  %8 = add i8 %7, -33
  %or.cond = icmp ult i8 %8, 94
  %spec.select = select i1 %or.cond, i64 64, i64 7
  br label %9

9:                                                ; preds = %6, %3
  %.0 = phi i64 [ 1, %3 ], [ %spec.select, %6 ]
  ret i64 %.0
}